target datalayout = "e-m:e-p270:32:32-p271:32:32-p272:64:64-i64:64-i128:128-f80:128-n8:16:32:64-S128"
target triple = "x86_64-pc-linux-gnu"

%class.XMarkThreadLocalStacks = type { ptr, [16 x ptr] }

; Function Attrs: mustprogress nounwind uwtable
define hidden void @_ZN22XMarkThreadLocalStacks4freeEP19XMarkStackAllocator(ptr noundef nonnull align 8 dereferenceable(136) %0, ptr noundef %1) #1 align 2 {
  %3 = alloca ptr, align 8
  %4 = alloca ptr, align 8
  store ptr %0, ptr %3, align 8
  store ptr %1, ptr %4, align 8
  %5 = load ptr, ptr %3, align 8
  %6 = getelementptr inbounds %class.XMarkThreadLocalStacks, ptr %5, i32 0, i32 0
  %7 = load ptr, ptr %6, align 8
  %8 = icmp ne ptr %7, null
  br i1 %8, label %9, label %14

9:                                                ; preds = %2
  %10 = load ptr, ptr %4, align 8
  %11 = getelementptr inbounds %class.XMarkThreadLocalStacks, ptr %5, i32 0, i32 0
  %12 = load ptr, ptr %11, align 8
  call void @_ZN19XMarkStackAllocator13free_magazineEP6XStackIPS0_I15XMarkStackEntryLm254EELm15EE(ptr noundef nonnull align 64 dereferenceable(128) %10, ptr noundef %12)
  %13 = getelementptr inbounds %class.XMarkThreadLocalStacks, ptr %5, i32 0, i32 0
  store ptr null, ptr %13, align 8
  br label %14

14:                                               ; preds = %9, %2
  ret void
}