; Function Attrs: mustprogress nounwind uwtable
define hidden void @_ZN22XMarkThreadLocalStacks4freeEP19XMarkStackAllocator(ptr nocapture noundef nonnull align 8 dereferenceable(136) %0, ptr noundef %1) local_unnamed_addr #1 align 2 {
  %3 = load ptr, ptr %0, align 8
  %.not = icmp eq ptr %3, null
  br i1 %.not, label %5, label %4

4:                                                ; preds = %2
  tail call void @_ZN19XMarkStackAllocator13free_magazineEP6XStackIPS0_I15XMarkStackEntryLm254EELm15EE(ptr noundef nonnull align 64 dereferenceable(128) %1, ptr noundef nonnull %3) #9
  store ptr null, ptr %0, align 8
  br label %5

5:                                                ; preds = %4, %2
  ret void
}